target datalayout = "e-m:e-p270:32:32-p271:32:32-p272:64:64-i64:64-i128:128-f80:128-n8:16:32:64-S128"
target triple = "x86_64-pc-linux-gnu"

%struct.MinRegMan_t_ = type { i32, i32, i32, i32, i32, i32, i32, i32, i32, i32, i32, ptr, i32, i32, i32, i32, i32, i32, i32, i32, i32, ptr, ptr, ptr, ptr, ptr, ptr, ptr, ptr, ptr, i32 }
%struct.Abc_Ntk_t_ = type { i32, i32, ptr, ptr, ptr, ptr, ptr, ptr, ptr, ptr, ptr, ptr, ptr, [11 x i32], i32, i32, i32, i32, ptr, i32, ptr, ptr, i32, i32, i32, double, i32, %struct.Vec_Int_t_, ptr, ptr, ptr, ptr, ptr, float, i32, ptr, ptr, ptr, ptr, ptr, ptr, ptr, ptr, ptr, ptr, ptr, ptr, ptr, ptr, ptr, ptr, ptr, ptr, ptr, ptr, ptr, ptr }
%struct.Vec_Int_t_ = type { i32, i32, ptr }
%struct.Vec_Ptr_t_ = type { i32, i32, ptr }
%struct.Abc_Obj_t_ = type { ptr, ptr, i32, i32, %struct.Vec_Int_t_, %struct.Vec_Int_t_, %union.anon.0, %union.anon.1 }
%union.anon.0 = type { ptr }
%union.anon.1 = type { ptr }
%struct.Flow_Data_t_ = type { i16, %union.anon, i32 }
%union.anon = type { ptr }

@pManMR = global ptr null, align 8
@.str.21 = private unnamed_addr constant [2 x i8] c"A\00", align 1
@.str.22 = private unnamed_addr constant [2 x i8] c"B\00", align 1
@.str.23 = private unnamed_addr constant [2 x i8] c"C\00", align 1
@.str.24 = private unnamed_addr constant [49 x i8] c"node %d type=%d lev=%d tedge=%d (%x%s) fanouts {\00", align 1
@.str.25 = private unnamed_addr constant [12 x i8] c"%d[%d](%d),\00", align 1
@.str.26 = private unnamed_addr constant [11 x i8] c"} fanins {\00", align 1
@.str.27 = private unnamed_addr constant [3 x i8] c"}\0A\00", align 1

; Function Attrs: inlinehint nounwind uwtable
define internal ptr @Abc_ObjFanin(ptr noundef %0, i32 noundef %1) #3 {
  %3 = alloca ptr, align 8
  %4 = alloca i32, align 4
  store ptr %0, ptr %3, align 8, !tbaa !46
  store i32 %1, ptr %4, align 4, !tbaa !8
  %5 = load ptr, ptr %3, align 8, !tbaa !46
  %6 = getelementptr inbounds nuw %struct.Abc_Obj_t_, ptr %5, i32 0, i32 0
  %7 = load ptr, ptr %6, align 8, !tbaa !71
  %8 = getelementptr inbounds nuw %struct.Abc_Ntk_t_, ptr %7, i32 0, i32 5
  %9 = load ptr, ptr %8, align 8, !tbaa !57
  %10 = getelementptr inbounds nuw %struct.Vec_Ptr_t_, ptr %9, i32 0, i32 2
  %11 = load ptr, ptr %10, align 8, !tbaa !68
  %12 = load ptr, ptr %3, align 8, !tbaa !46
  %13 = getelementptr inbounds nuw %struct.Abc_Obj_t_, ptr %12, i32 0, i32 4
  %14 = getelementptr inbounds nuw %struct.Vec_Int_t_, ptr %13, i32 0, i32 2
  %15 = load ptr, ptr %14, align 8, !tbaa !73
  %16 = load i32, ptr %4, align 4, !tbaa !8
  %17 = sext i32 %16 to i64
  %18 = getelementptr inbounds i32, ptr %15, i64 %17
  %19 = load i32, ptr %18, align 4, !tbaa !8
  %20 = sext i32 %19 to i64
  %21 = getelementptr inbounds ptr, ptr %11, i64 %20
  %22 = load ptr, ptr %21, align 8, !tbaa !74
  ret ptr %22
}

; Function Attrs: inlinehint nounwind uwtable
define internal i32 @Abc_ObjFaninNum(ptr noundef %0) #3 {
  %2 = alloca ptr, align 8
  store ptr %0, ptr %2, align 8, !tbaa !46
  %3 = load ptr, ptr %2, align 8, !tbaa !46
  %4 = getelementptr inbounds nuw %struct.Abc_Obj_t_, ptr %3, i32 0, i32 4
  %5 = getelementptr inbounds nuw %struct.Vec_Int_t_, ptr %4, i32 0, i32 1
  %6 = load i32, ptr %5, align 4, !tbaa !75
  ret i32 %6
}

; Function Attrs: inlinehint nounwind uwtable
define internal ptr @Abc_ObjFanout(ptr noundef %0, i32 noundef %1) #3 {
  %3 = alloca ptr, align 8
  %4 = alloca i32, align 4
  store ptr %0, ptr %3, align 8, !tbaa !46
  store i32 %1, ptr %4, align 4, !tbaa !8
  %5 = load ptr, ptr %3, align 8, !tbaa !46
  %6 = getelementptr inbounds nuw %struct.Abc_Obj_t_, ptr %5, i32 0, i32 0
  %7 = load ptr, ptr %6, align 8, !tbaa !71
  %8 = getelementptr inbounds nuw %struct.Abc_Ntk_t_, ptr %7, i32 0, i32 5
  %9 = load ptr, ptr %8, align 8, !tbaa !57
  %10 = getelementptr inbounds nuw %struct.Vec_Ptr_t_, ptr %9, i32 0, i32 2
  %11 = load ptr, ptr %10, align 8, !tbaa !68
  %12 = load ptr, ptr %3, align 8, !tbaa !46
  %13 = getelementptr inbounds nuw %struct.Abc_Obj_t_, ptr %12, i32 0, i32 5
  %14 = getelementptr inbounds nuw %struct.Vec_Int_t_, ptr %13, i32 0, i32 2
  %15 = load ptr, ptr %14, align 8, !tbaa !76
  %16 = load i32, ptr %4, align 4, !tbaa !8
  %17 = sext i32 %16 to i64
  %18 = getelementptr inbounds i32, ptr %15, i64 %17
  %19 = load i32, ptr %18, align 4, !tbaa !8
  %20 = sext i32 %19 to i64
  %21 = getelementptr inbounds ptr, ptr %11, i64 %20
  %22 = load ptr, ptr %21, align 8, !tbaa !74
  ret ptr %22
}

; Function Attrs: inlinehint nounwind uwtable
define internal i32 @Abc_ObjFanoutNum(ptr noundef %0) #3 {
  %2 = alloca ptr, align 8
  store ptr %0, ptr %2, align 8, !tbaa !46
  %3 = load ptr, ptr %2, align 8, !tbaa !46
  %4 = getelementptr inbounds nuw %struct.Abc_Obj_t_, ptr %3, i32 0, i32 5
  %5 = getelementptr inbounds nuw %struct.Vec_Int_t_, ptr %4, i32 0, i32 1
  %6 = load i32, ptr %5, align 4, !tbaa !102
  ret i32 %6
}

; Function Attrs: inlinehint nounwind uwtable
define internal i32 @Vec_PtrSize(ptr noundef %0) #3 {
  %2 = alloca ptr, align 8
  store ptr %0, ptr %2, align 8, !tbaa !64
  %3 = load ptr, ptr %2, align 8, !tbaa !64
  %4 = getelementptr inbounds nuw %struct.Vec_Ptr_t_, ptr %3, i32 0, i32 1
  %5 = load i32, ptr %4, align 4, !tbaa !65
  ret i32 %5
}

; Function Attrs: inlinehint nounwind uwtable
define internal i32 @Abc_ObjType(ptr noundef %0) #3 {
  %2 = alloca ptr, align 8
  store ptr %0, ptr %2, align 8, !tbaa !46
  %3 = load ptr, ptr %2, align 8, !tbaa !46
  %4 = getelementptr inbounds nuw %struct.Abc_Obj_t_, ptr %3, i32 0, i32 3
  %5 = load i32, ptr %4, align 4
  %6 = and i32 %5, 15
  ret i32 %6
}

; Function Attrs: inlinehint nounwind uwtable
define internal i32 @Abc_ObjId(ptr noundef %0) #3 {
  %2 = alloca ptr, align 8
  store ptr %0, ptr %2, align 8, !tbaa !46
  %3 = load ptr, ptr %2, align 8, !tbaa !46
  %4 = getelementptr inbounds nuw %struct.Abc_Obj_t_, ptr %3, i32 0, i32 2
  %5 = load i32, ptr %4, align 8, !tbaa !92
  ret i32 %5
}

; Function Attrs: nounwind uwtable
define void @print_node(ptr noundef %0) #0 {
  %2 = alloca ptr, align 8
  %3 = alloca i32, align 4
  %4 = alloca ptr, align 8
  %5 = alloca [6 x i8], align 1
  store ptr %0, ptr %2, align 8, !tbaa !46
  call void @llvm.lifetime.start.p0(i64 4, ptr %3) #9
  call void @llvm.lifetime.start.p0(i64 8, ptr %4) #9
  call void @llvm.lifetime.start.p0(i64 6, ptr %5) #9
  %6 = getelementptr inbounds [6 x i8], ptr %5, i64 0, i64 0
  store i8 0, ptr %6, align 1, !tbaa !79
  %7 = load ptr, ptr %2, align 8, !tbaa !46
  %8 = getelementptr inbounds nuw %struct.Abc_Obj_t_, ptr %7, i32 0, i32 3
  %9 = load i32, ptr %8, align 4
  %10 = lshr i32 %9, 4
  %11 = and i32 %10, 1
  %12 = icmp ne i32 %11, 0
  br i1 %12, label %13, label %16

13:                                               ; preds = %1
  %14 = getelementptr inbounds [6 x i8], ptr %5, i64 0, i64 0
  %15 = call ptr @strcat(ptr noundef %14, ptr noundef @.str.21) #9
  br label %16

16:                                               ; preds = %13, %1
  %17 = load ptr, ptr %2, align 8, !tbaa !46
  %18 = getelementptr inbounds nuw %struct.Abc_Obj_t_, ptr %17, i32 0, i32 3
  %19 = load i32, ptr %18, align 4
  %20 = lshr i32 %19, 5
  %21 = and i32 %20, 1
  %22 = icmp ne i32 %21, 0
  br i1 %22, label %23, label %26

23:                                               ; preds = %16
  %24 = getelementptr inbounds [6 x i8], ptr %5, i64 0, i64 0
  %25 = call ptr @strcat(ptr noundef %24, ptr noundef @.str.22) #9
  br label %26

26:                                               ; preds = %23, %16
  %27 = load ptr, ptr %2, align 8, !tbaa !46
  %28 = getelementptr inbounds nuw %struct.Abc_Obj_t_, ptr %27, i32 0, i32 3
  %29 = load i32, ptr %28, align 4
  %30 = lshr i32 %29, 6
  %31 = and i32 %30, 1
  %32 = icmp ne i32 %31, 0
  br i1 %32, label %33, label %36

33:                                               ; preds = %26
  %34 = getelementptr inbounds [6 x i8], ptr %5, i64 0, i64 0
  %35 = call ptr @strcat(ptr noundef %34, ptr noundef @.str.23) #9
  br label %36

36:                                               ; preds = %33, %26
  %37 = load ptr, ptr %2, align 8, !tbaa !46
  %38 = call i32 @Abc_ObjId(ptr noundef %37)
  %39 = load ptr, ptr %2, align 8, !tbaa !46
  %40 = call i32 @Abc_ObjType(ptr noundef %39)
  %41 = load ptr, ptr %2, align 8, !tbaa !46
  %42 = getelementptr inbounds nuw %struct.Abc_Obj_t_, ptr %41, i32 0, i32 3
  %43 = load i32, ptr %42, align 4
  %44 = lshr i32 %43, 12
  %45 = load ptr, ptr @pManMR, align 8, !tbaa !10
  %46 = getelementptr inbounds nuw %struct.MinRegMan_t_, ptr %45, i32 0, i32 24
  %47 = load ptr, ptr %46, align 8, !tbaa !104
  %48 = load ptr, ptr %2, align 8, !tbaa !46
  %49 = call i32 @Abc_ObjId(ptr noundef %48)
  %50 = zext i32 %49 to i64
  %51 = getelementptr inbounds nuw %struct.Vec_Ptr_t_, ptr %47, i64 %50
  %52 = call i32 @Vec_PtrSize(ptr noundef %51)
  %53 = load ptr, ptr @pManMR, align 8, !tbaa !10
  %54 = getelementptr inbounds nuw %struct.MinRegMan_t_, ptr %53, i32 0, i32 23
  %55 = load ptr, ptr %54, align 8, !tbaa !56
  %56 = load ptr, ptr %2, align 8, !tbaa !46
  %57 = call i32 @Abc_ObjId(ptr noundef %56)
  %58 = zext i32 %57 to i64
  %59 = getelementptr inbounds nuw %struct.Flow_Data_t_, ptr %55, i64 %58
  %60 = load i16, ptr %59, align 8
  %61 = zext i16 %60 to i32
  %62 = getelementptr inbounds [6 x i8], ptr %5, i64 0, i64 0
  %63 = call i32 (ptr, ...) @printf(ptr noundef @.str.24, i32 noundef %38, i32 noundef %40, i32 noundef %44, i32 noundef %52, i32 noundef %61, ptr noundef %62)
  store i32 0, ptr %3, align 4, !tbaa !8
  br label %64

64:                                               ; preds = %90, %36
  %65 = load i32, ptr %3, align 4, !tbaa !8
  %66 = load ptr, ptr %2, align 8, !tbaa !46
  %67 = call i32 @Abc_ObjFanoutNum(ptr noundef %66)
  %68 = icmp slt i32 %65, %67
  br i1 %68, label %69, label %73

69:                                               ; preds = %64
  %70 = load ptr, ptr %2, align 8, !tbaa !46
  %71 = load i32, ptr %3, align 4, !tbaa !8
  %72 = call ptr @Abc_ObjFanout(ptr noundef %70, i32 noundef %71)
  store ptr %72, ptr %4, align 8, !tbaa !46
  br label %73

73:                                               ; preds = %69, %64
  %74 = phi i1 [ false, %64 ], [ true, %69 ]
  br i1 %74, label %75, label %93

75:                                               ; preds = %73
  %76 = load ptr, ptr %4, align 8, !tbaa !46
  %77 = call i32 @Abc_ObjId(ptr noundef %76)
  %78 = load ptr, ptr %4, align 8, !tbaa !46
  %79 = call i32 @Abc_ObjType(ptr noundef %78)
  %80 = load ptr, ptr @pManMR, align 8, !tbaa !10
  %81 = getelementptr inbounds nuw %struct.MinRegMan_t_, ptr %80, i32 0, i32 23
  %82 = load ptr, ptr %81, align 8, !tbaa !56
  %83 = load ptr, ptr %4, align 8, !tbaa !46
  %84 = call i32 @Abc_ObjId(ptr noundef %83)
  %85 = zext i32 %84 to i64
  %86 = getelementptr inbounds nuw %struct.Flow_Data_t_, ptr %82, i64 %85
  %87 = load i16, ptr %86, align 8
  %88 = zext i16 %87 to i32
  %89 = call i32 (ptr, ...) @printf(ptr noundef @.str.25, i32 noundef %77, i32 noundef %79, i32 noundef %88)
  br label %90

90:                                               ; preds = %75
  %91 = load i32, ptr %3, align 4, !tbaa !8
  %92 = add nsw i32 %91, 1
  store i32 %92, ptr %3, align 4, !tbaa !8
  br label %64, !llvm.loop !105

93:                                               ; preds = %73
  %94 = call i32 (ptr, ...) @printf(ptr noundef @.str.26)
  store i32 0, ptr %3, align 4, !tbaa !8
  br label %95

95:                                               ; preds = %121, %93
  %96 = load i32, ptr %3, align 4, !tbaa !8
  %97 = load ptr, ptr %2, align 8, !tbaa !46
  %98 = call i32 @Abc_ObjFaninNum(ptr noundef %97)
  %99 = icmp slt i32 %96, %98
  br i1 %99, label %100, label %104

100:                                              ; preds = %95
  %101 = load ptr, ptr %2, align 8, !tbaa !46
  %102 = load i32, ptr %3, align 4, !tbaa !8
  %103 = call ptr @Abc_ObjFanin(ptr noundef %101, i32 noundef %102)
  store ptr %103, ptr %4, align 8, !tbaa !46
  br label %104

104:                                              ; preds = %100, %95
  %105 = phi i1 [ false, %95 ], [ true, %100 ]
  br i1 %105, label %106, label %124

106:                                              ; preds = %104
  %107 = load ptr, ptr %4, align 8, !tbaa !46
  %108 = call i32 @Abc_ObjId(ptr noundef %107)
  %109 = load ptr, ptr %4, align 8, !tbaa !46
  %110 = call i32 @Abc_ObjType(ptr noundef %109)
  %111 = load ptr, ptr @pManMR, align 8, !tbaa !10
  %112 = getelementptr inbounds nuw %struct.MinRegMan_t_, ptr %111, i32 0, i32 23
  %113 = load ptr, ptr %112, align 8, !tbaa !56
  %114 = load ptr, ptr %4, align 8, !tbaa !46
  %115 = call i32 @Abc_ObjId(ptr noundef %114)
  %116 = zext i32 %115 to i64
  %117 = getelementptr inbounds nuw %struct.Flow_Data_t_, ptr %113, i64 %116
  %118 = load i16, ptr %117, align 8
  %119 = zext i16 %118 to i32
  %120 = call i32 (ptr, ...) @printf(ptr noundef @.str.25, i32 noundef %108, i32 noundef %110, i32 noundef %119)
  br label %121

121:                                              ; preds = %106
  %122 = load i32, ptr %3, align 4, !tbaa !8
  %123 = add nsw i32 %122, 1
  store i32 %123, ptr %3, align 4, !tbaa !8
  br label %95, !llvm.loop !106

124:                                              ; preds = %104
  %125 = call i32 (ptr, ...) @printf(ptr noundef @.str.27)
  call void @llvm.lifetime.end.p0(i64 6, ptr %5) #9
  call void @llvm.lifetime.end.p0(i64 8, ptr %4) #9
  call void @llvm.lifetime.end.p0(i64 4, ptr %3) #9
  ret void
}