; Function Attrs: nofree nounwind uwtable
define void @print_node(ptr noundef readonly captures(none) %0) local_unnamed_addr #9 {
  %2 = alloca [6 x i8], align 1
  call void @llvm.lifetime.start.p0(i64 6, ptr nonnull %2) #18
  store i8 0, ptr %2, align 1, !tbaa !59
  %3 = getelementptr inbounds nuw i8, ptr %0, i64 20
  %4 = load i32, ptr %3, align 4
  %5 = and i32 %4, 16
  %.not = icmp eq i32 %5, 0
  br i1 %.not, label %7, label %6

6:                                                ; preds = %1
  %strlen = call i64 @strlen(ptr noundef nonnull dereferenceable(1) %2)
  %endptr = getelementptr inbounds i8, ptr %2, i64 %strlen
  store i16 65, ptr %endptr, align 1
  br label %7

7:                                                ; preds = %6, %1
  %8 = and i32 %4, 32
  %.not25 = icmp eq i32 %8, 0
  br i1 %.not25, label %10, label %9

9:                                                ; preds = %7
  %strlen26 = call i64 @strlen(ptr noundef nonnull dereferenceable(1) %2)
  %endptr27 = getelementptr inbounds i8, ptr %2, i64 %strlen26
  store i16 66, ptr %endptr27, align 1
  br label %10

10:                                               ; preds = %9, %7
  %11 = and i32 %4, 64
  %.not28 = icmp eq i32 %11, 0
  br i1 %.not28, label %13, label %12

12:                                               ; preds = %10
  %strlen29 = call i64 @strlen(ptr noundef nonnull dereferenceable(1) %2)
  %endptr30 = getelementptr inbounds i8, ptr %2, i64 %strlen29
  store i16 67, ptr %endptr30, align 1
  br label %13

13:                                               ; preds = %12, %10
  %14 = getelementptr i8, ptr %0, i64 16
  %.val39 = load i32, ptr %14, align 8, !tbaa !80
  %15 = and i32 %4, 15
  %16 = lshr i32 %4, 12
  %17 = load ptr, ptr @pManMR, align 8, !tbaa !3
  %18 = getelementptr inbounds nuw i8, ptr %17, i64 120
  %19 = load ptr, ptr %18, align 8, !tbaa !111
  %20 = zext i32 %.val39 to i64
  %21 = getelementptr %struct.Vec_Ptr_t_, ptr %19, i64 %20, i32 1
  %.val = load i32, ptr %21, align 4, !tbaa !25
  %22 = getelementptr inbounds nuw i8, ptr %17, i64 112
  %23 = load ptr, ptr %22, align 8, !tbaa !71
  %24 = getelementptr inbounds nuw %struct.Flow_Data_t_, ptr %23, i64 %20
  %25 = load i16, ptr %24, align 8
  %26 = zext i16 %25 to i32
  %27 = call i32 (ptr, ...) @printf(ptr noundef nonnull dereferenceable(1) @.str.24, i32 noundef %.val39, i32 noundef %15, i32 noundef %16, i32 noundef %.val, i32 noundef %26, ptr noundef nonnull %2)
  %28 = getelementptr i8, ptr %0, i64 44
  %.val3147 = load i32, ptr %28, align 4, !tbaa !58
  %29 = icmp sgt i32 %.val3147, 0
  br i1 %29, label %.lr.ph, label %.critedge

.lr.ph:                                           ; preds = %13
  %30 = getelementptr i8, ptr %0, i64 48
  br label %31

31:                                               ; preds = %.lr.ph, %31
  %indvars.iv = phi i64 [ 0, %.lr.ph ], [ %indvars.iv.next, %31 ]
  %.val40 = load ptr, ptr %0, align 8, !tbaa !52
  %.val41 = load ptr, ptr %30, align 8, !tbaa !57
  %32 = getelementptr i8, ptr %.val40, i64 32
  %.val40.val = load ptr, ptr %32, align 8, !tbaa !56
  %33 = getelementptr i8, ptr %.val40.val, i64 8
  %.val40.val.val = load ptr, ptr %33, align 8, !tbaa !28
  %34 = getelementptr inbounds nuw i32, ptr %.val41, i64 %indvars.iv
  %35 = load i32, ptr %34, align 4, !tbaa !48
  %36 = sext i32 %35 to i64
  %37 = getelementptr inbounds ptr, ptr %.val40.val.val, i64 %36
  %38 = load ptr, ptr %37, align 8, !tbaa !51
  %39 = getelementptr i8, ptr %38, i64 16
  %.val36 = load i32, ptr %39, align 8, !tbaa !80
  %40 = getelementptr i8, ptr %38, i64 20
  %.val43 = load i32, ptr %40, align 4
  %41 = and i32 %.val43, 15
  %42 = load ptr, ptr @pManMR, align 8, !tbaa !3
  %43 = getelementptr inbounds nuw i8, ptr %42, i64 112
  %44 = load ptr, ptr %43, align 8, !tbaa !71
  %45 = zext i32 %.val36 to i64
  %46 = getelementptr inbounds nuw %struct.Flow_Data_t_, ptr %44, i64 %45
  %47 = load i16, ptr %46, align 8
  %48 = zext i16 %47 to i32
  %49 = call i32 (ptr, ...) @printf(ptr noundef nonnull dereferenceable(1) @.str.25, i32 noundef %.val36, i32 noundef %41, i32 noundef %48)
  %indvars.iv.next = add nuw nsw i64 %indvars.iv, 1
  %.val31 = load i32, ptr %28, align 4, !tbaa !58
  %50 = sext i32 %.val31 to i64
  %51 = icmp slt i64 %indvars.iv.next, %50
  br i1 %51, label %31, label %.critedge, !llvm.loop !112

.critedge:                                        ; preds = %31, %13
  %52 = call i32 (ptr, ...) @printf(ptr noundef nonnull dereferenceable(1) @.str.26)
  %53 = getelementptr i8, ptr %0, i64 28
  %.val3249 = load i32, ptr %53, align 4, !tbaa !62
  %54 = icmp sgt i32 %.val3249, 0
  br i1 %54, label %.lr.ph51, label %.critedge2

.lr.ph51:                                         ; preds = %.critedge
  %55 = getelementptr i8, ptr %0, i64 32
  br label %56

56:                                               ; preds = %.lr.ph51, %56
  %indvars.iv53 = phi i64 [ 0, %.lr.ph51 ], [ %indvars.iv.next54, %56 ]
  %.val45 = load ptr, ptr %0, align 8, !tbaa !52
  %.val46 = load ptr, ptr %55, align 8, !tbaa !55
  %57 = getelementptr i8, ptr %.val45, i64 32
  %.val45.val = load ptr, ptr %57, align 8, !tbaa !56
  %58 = getelementptr i8, ptr %.val45.val, i64 8
  %.val45.val.val = load ptr, ptr %58, align 8, !tbaa !28
  %59 = getelementptr inbounds nuw i32, ptr %.val46, i64 %indvars.iv53
  %60 = load i32, ptr %59, align 4, !tbaa !48
  %61 = sext i32 %60 to i64
  %62 = getelementptr inbounds ptr, ptr %.val45.val.val, i64 %61
  %63 = load ptr, ptr %62, align 8, !tbaa !51
  %64 = getelementptr i8, ptr %63, i64 16
  %.val34 = load i32, ptr %64, align 8, !tbaa !80
  %65 = getelementptr i8, ptr %63, i64 20
  %.val44 = load i32, ptr %65, align 4
  %66 = and i32 %.val44, 15
  %67 = load ptr, ptr @pManMR, align 8, !tbaa !3
  %68 = getelementptr inbounds nuw i8, ptr %67, i64 112
  %69 = load ptr, ptr %68, align 8, !tbaa !71
  %70 = zext i32 %.val34 to i64
  %71 = getelementptr inbounds nuw %struct.Flow_Data_t_, ptr %69, i64 %70
  %72 = load i16, ptr %71, align 8
  %73 = zext i16 %72 to i32
  %74 = call i32 (ptr, ...) @printf(ptr noundef nonnull dereferenceable(1) @.str.25, i32 noundef %.val34, i32 noundef %66, i32 noundef %73)
  %indvars.iv.next54 = add nuw nsw i64 %indvars.iv53, 1
  %.val32 = load i32, ptr %53, align 4, !tbaa !62
  %75 = sext i32 %.val32 to i64
  %76 = icmp slt i64 %indvars.iv.next54, %75
  br i1 %76, label %56, label %.critedge2, !llvm.loop !113

.critedge2:                                       ; preds = %56, %.critedge
  %puts = call i32 @puts(ptr nonnull dereferenceable(1) @str.9)
  call void @llvm.lifetime.end.p0(i64 6, ptr nonnull %2) #18
  ret void
}